target datalayout = "e-m:e-p270:32:32-p271:32:32-p272:64:64-i64:64-i128:128-f80:128-n8:16:32:64-S128"
target triple = "x86_64-pc-linux-gnu"

%struct.nghttp2_stream = type { i32, %struct.nghttp2_pq_entry, i64, i64, i64, i64, ptr, ptr, ptr, i64, i32, i32, i32, i32, i32, i32, i32, i16, i32, i8, i8, i8, i8, i8, i8 }
%struct.nghttp2_pq_entry = type { i64 }
%struct.nghttp2_session = type { %struct.nghttp2_map, %struct.nghttp2_outbound_queue, %struct.nghttp2_outbound_queue, %struct.nghttp2_outbound_queue, [8 x %struct.anon], %struct.nghttp2_active_outbound_item, %struct.nghttp2_inbound_frame, %struct.nghttp2_hd_deflater, %struct.nghttp2_hd_inflater, %struct.nghttp2_session_callbacks, %struct.nghttp2_mem, ptr, ptr, %struct.nghttp2_ratelim, i64, i64, i64, i64, i64, i64, i64, i64, i64, i64, i64, i64, i64, i64, i32, i32, i32, i32, i32, i32, i32, i32, i32, i32, i32, i32, i8, %struct.nghttp2_settings_storage, %struct.nghttp2_settings_storage, i32, i32, i32, i8, i8, i8, i8, i8, i8, [32 x i8] }
%struct.nghttp2_map = type { ptr, ptr, i64, i64 }
%struct.nghttp2_outbound_queue = type { ptr, ptr, i64 }
%struct.anon = type { %struct.nghttp2_pq }
%struct.nghttp2_pq = type { ptr, ptr, i64, i64, ptr }
%struct.nghttp2_active_outbound_item = type { ptr, %struct.nghttp2_bufs, i32 }
%struct.nghttp2_bufs = type { ptr, ptr, ptr, i64, i64, i64, i64, i64 }
%struct.nghttp2_inbound_frame = type { %union.nghttp2_frame, %union.nghttp2_ext_frame_payload, ptr, %struct.nghttp2_buf, %struct.nghttp2_buf, ptr, i64, i64, i64, i64, i32, [32 x i8] }
%union.nghttp2_frame = type { %struct.nghttp2_headers }
%struct.nghttp2_headers = type { %struct.nghttp2_frame_hd, i64, %struct.nghttp2_priority_spec, ptr, i64, i32 }
%struct.nghttp2_frame_hd = type { i64, i32, i8, i8, i8 }
%struct.nghttp2_priority_spec = type { i32, i32, i8 }
%union.nghttp2_ext_frame_payload = type { %struct.nghttp2_ext_altsvc }
%struct.nghttp2_ext_altsvc = type { ptr, i64, ptr, i64 }
%struct.nghttp2_buf = type { ptr, ptr, ptr, ptr, ptr }
%struct.nghttp2_hd_deflater = type { %struct.nghttp2_hd_context, %struct.nghttp2_hd_map, i64, i64, i8 }
%struct.nghttp2_hd_context = type { %struct.nghttp2_hd_ringbuf, ptr, i64, i64, i32, i8 }
%struct.nghttp2_hd_ringbuf = type { ptr, i64, i64, i64 }
%struct.nghttp2_hd_map = type { [128 x ptr] }
%struct.nghttp2_hd_inflater = type { %struct.nghttp2_hd_context, %struct.nghttp2_hd_huff_decode_context, %struct.nghttp2_buf, %struct.nghttp2_buf, ptr, ptr, ptr, ptr, i64, i64, i64, i64, i64, i32, i32, i8, i8, i8 }
%struct.nghttp2_hd_huff_decode_context = type { i16 }
%struct.nghttp2_session_callbacks = type { ptr, ptr, ptr, ptr, ptr, ptr, ptr, ptr, ptr, ptr, ptr, ptr, ptr, ptr, ptr, ptr, ptr, ptr, ptr, ptr, ptr, ptr, ptr, ptr, ptr, ptr, ptr, ptr }
%struct.nghttp2_mem = type { ptr, ptr, ptr, ptr, ptr }
%struct.nghttp2_ratelim = type { i64, i64, i64, i64 }
%struct.nghttp2_settings_storage = type { i32, i32, i32, i32, i32, i32, i32, i32 }
%struct.nghttp2_close_stream_on_goaway_arg = type { ptr, ptr, i32, i32 }

@.str.1 = private unnamed_addr constant [115 x i8] c"generated/home/dtcxzyw/WorkSpace/Projects/compilers/llvm-opt-benchmark/bench/nghttp2/nghttp2/lib/nghttp2_session.c\00", align 1
@.str.80 = private unnamed_addr constant [28 x i8] c"stream->closed_next == NULL\00", align 1
@__PRETTY_FUNCTION__.find_stream_on_goaway_func = private unnamed_addr constant [47 x i8] c"int find_stream_on_goaway_func(void *, void *)\00", align 1

; Function Attrs: nounwind uwtable
define hidden i32 @nghttp2_session_is_my_stream_id(ptr noundef %0, i32 noundef %1) #0 {
  %3 = alloca i32, align 4
  %4 = alloca ptr, align 8
  %5 = alloca i32, align 4
  %6 = alloca i32, align 4
  %7 = alloca i32, align 4
  store ptr %0, ptr %4, align 8, !tbaa !7
  store i32 %1, ptr %5, align 4, !tbaa !3
  call void @llvm.lifetime.start.p0(i64 4, ptr %6) #10
  %8 = load i32, ptr %5, align 4, !tbaa !3
  %9 = icmp eq i32 %8, 0
  br i1 %9, label %10, label %11

10:                                               ; preds = %2
  store i32 0, ptr %3, align 4
  store i32 1, ptr %7, align 4
  br label %26

11:                                               ; preds = %2
  %12 = load i32, ptr %5, align 4, !tbaa !3
  %13 = and i32 %12, 1
  store i32 %13, ptr %6, align 4, !tbaa !3
  %14 = load ptr, ptr %4, align 8, !tbaa !7
  %15 = getelementptr inbounds nuw %struct.nghttp2_session, ptr %14, i32 0, i32 49
  %16 = load i8, ptr %15, align 1, !tbaa !42
  %17 = icmp ne i8 %16, 0
  br i1 %17, label %18, label %22

18:                                               ; preds = %11
  %19 = load i32, ptr %6, align 4, !tbaa !3
  %20 = icmp eq i32 %19, 0
  %21 = zext i1 %20 to i32
  store i32 %21, ptr %3, align 4
  store i32 1, ptr %7, align 4
  br label %26

22:                                               ; preds = %11
  %23 = load i32, ptr %6, align 4, !tbaa !3
  %24 = icmp eq i32 %23, 1
  %25 = zext i1 %24 to i32
  store i32 %25, ptr %3, align 4
  store i32 1, ptr %7, align 4
  br label %26

26:                                               ; preds = %22, %18, %10
  call void @llvm.lifetime.end.p0(i64 4, ptr %6) #10
  %27 = load i32, ptr %3, align 4
  ret i32 %27
}

; Function Attrs: nounwind uwtable
define internal i32 @find_stream_on_goaway_func(ptr noundef %0, ptr noundef %1) #0 {
  %3 = alloca i32, align 4
  %4 = alloca ptr, align 8
  %5 = alloca ptr, align 8
  %6 = alloca ptr, align 8
  %7 = alloca ptr, align 8
  %8 = alloca i32, align 4
  store ptr %0, ptr %4, align 8, !tbaa !53
  store ptr %1, ptr %5, align 8, !tbaa !53
  call void @llvm.lifetime.start.p0(i64 8, ptr %6) #10
  call void @llvm.lifetime.start.p0(i64 8, ptr %7) #10
  %9 = load ptr, ptr %5, align 8, !tbaa !53
  store ptr %9, ptr %6, align 8, !tbaa !53
  %10 = load ptr, ptr %4, align 8, !tbaa !53
  store ptr %10, ptr %7, align 8, !tbaa !43
  %11 = load ptr, ptr %6, align 8, !tbaa !53
  %12 = getelementptr inbounds nuw %struct.nghttp2_close_stream_on_goaway_arg, ptr %11, i32 0, i32 0
  %13 = load ptr, ptr %12, align 8, !tbaa !202
  %14 = load ptr, ptr %7, align 8, !tbaa !43
  %15 = getelementptr inbounds nuw %struct.nghttp2_stream, ptr %14, i32 0, i32 10
  %16 = load i32, ptr %15, align 8, !tbaa !145
  %17 = call i32 @nghttp2_session_is_my_stream_id(ptr noundef %13, i32 noundef %16)
  %18 = icmp ne i32 %17, 0
  br i1 %18, label %19, label %26

19:                                               ; preds = %2
  %20 = load ptr, ptr %6, align 8, !tbaa !53
  %21 = getelementptr inbounds nuw %struct.nghttp2_close_stream_on_goaway_arg, ptr %20, i32 0, i32 3
  %22 = load i32, ptr %21, align 4, !tbaa !206
  %23 = icmp ne i32 %22, 0
  br i1 %23, label %24, label %25

24:                                               ; preds = %19
  store i32 0, ptr %3, align 4
  store i32 1, ptr %8, align 4
  br label %80

25:                                               ; preds = %19
  br label %33

26:                                               ; preds = %2
  %27 = load ptr, ptr %6, align 8, !tbaa !53
  %28 = getelementptr inbounds nuw %struct.nghttp2_close_stream_on_goaway_arg, ptr %27, i32 0, i32 3
  %29 = load i32, ptr %28, align 4, !tbaa !206
  %30 = icmp ne i32 %29, 0
  br i1 %30, label %32, label %31

31:                                               ; preds = %26
  store i32 0, ptr %3, align 4
  store i32 1, ptr %8, align 4
  br label %80

32:                                               ; preds = %26
  br label %33

33:                                               ; preds = %32, %25
  %34 = load ptr, ptr %7, align 8, !tbaa !43
  %35 = getelementptr inbounds nuw %struct.nghttp2_stream, ptr %34, i32 0, i32 0
  %36 = load i32, ptr %35, align 8, !tbaa !48
  %37 = icmp ne i32 %36, 5
  br i1 %37, label %38, label %79

38:                                               ; preds = %33
  %39 = load ptr, ptr %7, align 8, !tbaa !43
  %40 = getelementptr inbounds nuw %struct.nghttp2_stream, ptr %39, i32 0, i32 19
  %41 = load i8, ptr %40, align 4, !tbaa !45
  %42 = zext i8 %41 to i32
  %43 = and i32 %42, 2
  %44 = icmp eq i32 %43, 0
  br i1 %44, label %45, label %79

45:                                               ; preds = %38
  %46 = load ptr, ptr %7, align 8, !tbaa !43
  %47 = getelementptr inbounds nuw %struct.nghttp2_stream, ptr %46, i32 0, i32 10
  %48 = load i32, ptr %47, align 8, !tbaa !145
  %49 = load ptr, ptr %6, align 8, !tbaa !53
  %50 = getelementptr inbounds nuw %struct.nghttp2_close_stream_on_goaway_arg, ptr %49, i32 0, i32 2
  %51 = load i32, ptr %50, align 8, !tbaa !205
  %52 = icmp sgt i32 %48, %51
  br i1 %52, label %53, label %79

53:                                               ; preds = %45
  %54 = load ptr, ptr %7, align 8, !tbaa !43
  %55 = getelementptr inbounds nuw %struct.nghttp2_stream, ptr %54, i32 0, i32 6
  %56 = load ptr, ptr %55, align 8, !tbaa !207
  %57 = icmp eq ptr %56, null
  br i1 %57, label %58, label %59

58:                                               ; preds = %53
  br label %60

59:                                               ; preds = %53
  call void @__assert_fail(ptr noundef @.str.80, ptr noundef @.str.1, i32 noundef 2371, ptr noundef @__PRETTY_FUNCTION__.find_stream_on_goaway_func) #12
  unreachable

60:                                               ; preds = %58
  %61 = load ptr, ptr %6, align 8, !tbaa !53
  %62 = getelementptr inbounds nuw %struct.nghttp2_close_stream_on_goaway_arg, ptr %61, i32 0, i32 1
  %63 = load ptr, ptr %62, align 8, !tbaa !204
  %64 = icmp ne ptr %63, null
  br i1 %64, label %65, label %74

65:                                               ; preds = %60
  %66 = load ptr, ptr %6, align 8, !tbaa !53
  %67 = getelementptr inbounds nuw %struct.nghttp2_close_stream_on_goaway_arg, ptr %66, i32 0, i32 1
  %68 = load ptr, ptr %67, align 8, !tbaa !204
  %69 = load ptr, ptr %7, align 8, !tbaa !43
  %70 = getelementptr inbounds nuw %struct.nghttp2_stream, ptr %69, i32 0, i32 6
  store ptr %68, ptr %70, align 8, !tbaa !207
  %71 = load ptr, ptr %7, align 8, !tbaa !43
  %72 = load ptr, ptr %6, align 8, !tbaa !53
  %73 = getelementptr inbounds nuw %struct.nghttp2_close_stream_on_goaway_arg, ptr %72, i32 0, i32 1
  store ptr %71, ptr %73, align 8, !tbaa !204
  br label %78

74:                                               ; preds = %60
  %75 = load ptr, ptr %7, align 8, !tbaa !43
  %76 = load ptr, ptr %6, align 8, !tbaa !53
  %77 = getelementptr inbounds nuw %struct.nghttp2_close_stream_on_goaway_arg, ptr %76, i32 0, i32 1
  store ptr %75, ptr %77, align 8, !tbaa !204
  br label %78

78:                                               ; preds = %74, %65
  br label %79

79:                                               ; preds = %78, %45, %38, %33
  store i32 0, ptr %3, align 4
  store i32 1, ptr %8, align 4
  br label %80

80:                                               ; preds = %79, %31, %24
  call void @llvm.lifetime.end.p0(i64 8, ptr %7) #10
  call void @llvm.lifetime.end.p0(i64 8, ptr %6) #10
  %81 = load i32, ptr %3, align 4
  ret i32 %81
}