; Function Attrs: nounwind uwtable
define internal noundef i32 @find_stream_on_goaway_func(ptr noundef %0, ptr noundef captures(none) %1) #1 {
  %3 = getelementptr inbounds nuw i8, ptr %0, i64 80
  %4 = load i32, ptr %3, align 8, !tbaa !140
  %5 = icmp eq i32 %4, 0
  br i1 %5, label %nghttp2_session_is_my_stream_id.exit.thread, label %nghttp2_session_is_my_stream_id.exit

nghttp2_session_is_my_stream_id.exit:             ; preds = %2
  %6 = load ptr, ptr %1, align 8, !tbaa !207
  %7 = getelementptr inbounds nuw i8, ptr %6, i64 2675
  %8 = load i8, ptr %7, align 1, !tbaa !37
  %9 = trunc i32 %4 to i1
  %10 = icmp eq i8 %8, 0
  %.not = xor i1 %10, %9
  br i1 %.not, label %nghttp2_session_is_my_stream_id.exit.thread, label %11

11:                                               ; preds = %nghttp2_session_is_my_stream_id.exit
  %12 = getelementptr inbounds nuw i8, ptr %1, i64 20
  %13 = load i32, ptr %12, align 4, !tbaa !211
  %.not19 = icmp eq i32 %13, 0
  br i1 %.not19, label %16, label %36

nghttp2_session_is_my_stream_id.exit.thread:      ; preds = %2, %nghttp2_session_is_my_stream_id.exit
  %14 = getelementptr inbounds nuw i8, ptr %1, i64 20
  %15 = load i32, ptr %14, align 4, !tbaa !211
  %.not18 = icmp eq i32 %15, 0
  br i1 %.not18, label %36, label %16

16:                                               ; preds = %nghttp2_session_is_my_stream_id.exit.thread, %11
  %17 = load i32, ptr %0, align 8, !tbaa !42
  %.not20 = icmp eq i32 %17, 5
  br i1 %.not20, label %36, label %18

18:                                               ; preds = %16
  %19 = getelementptr inbounds nuw i8, ptr %0, i64 116
  %20 = load i8, ptr %19, align 4, !tbaa !38
  %21 = and i8 %20, 2
  %22 = icmp eq i8 %21, 0
  br i1 %22, label %23, label %36

23:                                               ; preds = %18
  %24 = getelementptr inbounds nuw i8, ptr %1, i64 16
  %25 = load i32, ptr %24, align 8, !tbaa !210
  %26 = icmp sgt i32 %4, %25
  br i1 %26, label %27, label %36

27:                                               ; preds = %23
  %28 = getelementptr inbounds nuw i8, ptr %0, i64 48
  %29 = load ptr, ptr %28, align 8, !tbaa !212
  %30 = icmp eq ptr %29, null
  br i1 %30, label %32, label %31

31:                                               ; preds = %27
  tail call void @__assert_fail(ptr noundef nonnull @.str.80, ptr noundef nonnull @.str.1, i32 noundef 2371, ptr noundef nonnull @__PRETTY_FUNCTION__.find_stream_on_goaway_func) #17
  unreachable

32:                                               ; preds = %27
  %33 = getelementptr inbounds nuw i8, ptr %1, i64 8
  %34 = load ptr, ptr %33, align 8, !tbaa !209
  %.not21 = icmp eq ptr %34, null
  br i1 %.not21, label %.sink.split, label %35

35:                                               ; preds = %32
  store ptr %34, ptr %28, align 8, !tbaa !212
  br label %.sink.split

.sink.split:                                      ; preds = %32, %35
  store ptr %0, ptr %33, align 8, !tbaa !209
  br label %36

36:                                               ; preds = %.sink.split, %16, %18, %23, %nghttp2_session_is_my_stream_id.exit.thread, %11
  ret i32 0
}